; Function Attrs: nounwind uwtable
define internal i32 @imap_multi_statemach(ptr noundef %0, ptr noundef writeonly captures(none) %1) #0 {
  %3 = alloca i8, align 1
  %4 = getelementptr inbounds nuw i8, ptr %0, i64 24
  %5 = load ptr, ptr %4, align 8, !tbaa !98
  %6 = getelementptr inbounds nuw i8, ptr %5, i64 1088
  %7 = tail call zeroext i1 @Curl_conn_is_ssl(ptr noundef %5, i32 noundef 0) #7
  br i1 %7, label %8, label %21

8:                                                ; preds = %2
  %9 = getelementptr inbounds nuw i8, ptr %5, i64 1339
  %10 = load i8, ptr %9, align 1
  %11 = and i8 %10, 1
  %.not = icmp eq i8 %11, 0
  br i1 %.not, label %12, label %21

12:                                               ; preds = %8
  call void @llvm.lifetime.start.p0(i64 1, ptr nonnull %3) #7
  store i8 0, ptr %3, align 1, !tbaa !8
  %13 = call i32 @Curl_conn_connect(ptr noundef nonnull %0, i32 noundef 0, i1 noundef zeroext false, ptr noundef nonnull %3) #7
  %14 = load i8, ptr %3, align 1, !tbaa !8, !range !112, !noundef !113
  %15 = load i8, ptr %9, align 1
  %16 = and i8 %15, -2
  %17 = or disjoint i8 %16, %14
  store i8 %17, ptr %9, align 1
  %.not15 = icmp eq i32 %13, 0
  br i1 %.not15, label %18, label %20

18:                                               ; preds = %12
  %19 = trunc nuw i8 %14 to i1
  br i1 %19, label %.critedge, label %20

.critedge:                                        ; preds = %18
  call void @llvm.lifetime.end.p0(i64 1, ptr nonnull %3) #7
  br label %21

20:                                               ; preds = %12, %18
  call void @llvm.lifetime.end.p0(i64 1, ptr nonnull %3) #7
  br label %27

21:                                               ; preds = %.critedge, %8, %2
  %22 = call i32 @Curl_pp_statemach(ptr noundef nonnull %0, ptr noundef nonnull %6, i1 noundef zeroext false, i1 noundef zeroext false) #7
  %23 = getelementptr inbounds nuw i8, ptr %5, i64 1328
  %24 = load i32, ptr %23, align 8, !tbaa !110
  %25 = icmp eq i32 %24, 0
  %26 = zext i1 %25 to i8
  store i8 %26, ptr %1, align 1, !tbaa !8
  br label %27

27:                                               ; preds = %20, %21
  %.1 = phi i32 [ %22, %21 ], [ %13, %20 ]
  ret i32 %.1
}